; ModuleID = '5/241.c'
source_filename = "5/241.c"
target datalayout = "e-m:e-p270:32:32-p271:32:32-p272:64:64-i64:64-f80:128-n8:16:32:64-S128"
target triple = "x86_64-pc-linux-gnu"

@.str = private unnamed_addr constant [4 x i8] c"%lf\00", align 1
@.str.1 = private unnamed_addr constant [5 x i8] c"%s%s\00", align 1
@.str.2 = private unnamed_addr constant [6 x i8] c"error\00", align 1
@.str.3 = private unnamed_addr constant [4 x i8] c"yes\00", align 1
@.str.4 = private unnamed_addr constant [3 x i8] c"no\00", align 1

; Function Attrs: noinline nounwind uwtable
define dso_local i32 @main() #0 {
  %1 = alloca i32, align 4
  %2 = alloca double, align 8
  %3 = alloca double, align 8
  %4 = alloca i32, align 4
  %5 = alloca i32, align 4
  %6 = alloca i32, align 4
  %7 = alloca i32, align 4
  %8 = alloca i32, align 4
  %9 = alloca [501 x i8], align 16
  %10 = alloca [501 x i8], align 16
  store i32 0, i32* %1, align 4
  store i32 0, i32* %7, align 4
  store i32 0, i32* %8, align 4
  %11 = call i32 (i8*, ...) @__isoc99_scanf(i8* getelementptr inbounds ([4 x i8], [4 x i8]* @.str, i64 0, i64 0), double* %2)
  %12 = getelementptr inbounds [501 x i8], [501 x i8]* %9, i64 0, i64 0
  %13 = getelementptr inbounds [501 x i8], [501 x i8]* %10, i64 0, i64 0
  %14 = call i32 (i8*, ...) @__isoc99_scanf(i8* getelementptr inbounds ([5 x i8], [5 x i8]* @.str.1, i64 0, i64 0), i8* %12, i8* %13)
  %15 = getelementptr inbounds [501 x i8], [501 x i8]* %9, i64 0, i64 0
  %16 = call i64 @strlen(i8* %15) #3
  %17 = trunc i64 %16 to i32
  store i32 %17, i32* %4, align 4
  %18 = getelementptr inbounds [501 x i8], [501 x i8]* %10, i64 0, i64 0
  %19 = call i64 @strlen(i8* %18) #3
  %20 = trunc i64 %19 to i32
  store i32 %20, i32* %5, align 4
  %21 = load i32, i32* %4, align 4
  %22 = load i32, i32* %5, align 4
  %23 = icmp ne i32 %21, %22
  br i1 %23, label %24, label %26

24:                                               ; preds = %0
  %25 = call i32 (i8*, ...) @printf(i8* getelementptr inbounds ([6 x i8], [6 x i8]* @.str.2, i64 0, i64 0))
  br label %128

26:                                               ; preds = %0
  store i32 0, i32* %6, align 4
  br label %27

27:                                               ; preds = %105, %26
  %28 = load i32, i32* %6, align 4
  %29 = load i32, i32* %4, align 4
  %30 = icmp slt i32 %28, %29
  br i1 %30, label %31, label %108

31:                                               ; preds = %27
  %32 = load i32, i32* %6, align 4
  %33 = sext i32 %32 to i64
  %34 = getelementptr inbounds [501 x i8], [501 x i8]* %9, i64 0, i64 %33
  %35 = load i8, i8* %34, align 1
  %36 = sext i8 %35 to i32
  %37 = icmp ne i32 %36, 65
  br i1 %37, label %38, label %60

38:                                               ; preds = %31
  %39 = load i32, i32* %6, align 4
  %40 = sext i32 %39 to i64
  %41 = getelementptr inbounds [501 x i8], [501 x i8]* %9, i64 0, i64 %40
  %42 = load i8, i8* %41, align 1
  %43 = sext i8 %42 to i32
  %44 = icmp ne i32 %43, 71
  br i1 %44, label %45, label %60

45:                                               ; preds = %38
  %46 = load i32, i32* %6, align 4
  %47 = sext i32 %46 to i64
  %48 = getelementptr inbounds [501 x i8], [501 x i8]* %9, i64 0, i64 %47
  %49 = load i8, i8* %48, align 1
  %50 = sext i8 %49 to i32
  %51 = icmp ne i32 %50, 67
  br i1 %51, label %52, label %60

52:                                               ; preds = %45
  %53 = load i32, i32* %6, align 4
  %54 = sext i32 %53 to i64
  %55 = getelementptr inbounds [501 x i8], [501 x i8]* %9, i64 0, i64 %54
  %56 = load i8, i8* %55, align 1
  %57 = sext i8 %56 to i32
  %58 = icmp ne i32 %57, 84
  br i1 %58, label %59, label %60

59:                                               ; preds = %52
  store i32 1, i32* %7, align 4
  br label %108

60:                                               ; preds = %52, %45, %38, %31
  %61 = load i32, i32* %6, align 4
  %62 = sext i32 %61 to i64
  %63 = getelementptr inbounds [501 x i8], [501 x i8]* %10, i64 0, i64 %62
  %64 = load i8, i8* %63, align 1
  %65 = sext i8 %64 to i32
  %66 = icmp ne i32 %65, 65
  br i1 %66, label %67, label %89

67:                                               ; preds = %60
  %68 = load i32, i32* %6, align 4
  %69 = sext i32 %68 to i64
  %70 = getelementptr inbounds [501 x i8], [501 x i8]* %10, i64 0, i64 %69
  %71 = load i8, i8* %70, align 1
  %72 = sext i8 %71 to i32
  %73 = icmp ne i32 %72, 71
  br i1 %73, label %74, label %89

74:                                               ; preds = %67
  %75 = load i32, i32* %6, align 4
  %76 = sext i32 %75 to i64
  %77 = getelementptr inbounds [501 x i8], [501 x i8]* %10, i64 0, i64 %76
  %78 = load i8, i8* %77, align 1
  %79 = sext i8 %78 to i32
  %80 = icmp ne i32 %79, 67
  br i1 %80, label %81, label %89

81:                                               ; preds = %74
  %82 = load i32, i32* %6, align 4
  %83 = sext i32 %82 to i64
  %84 = getelementptr inbounds [501 x i8], [501 x i8]* %10, i64 0, i64 %83
  %85 = load i8, i8* %84, align 1
  %86 = sext i8 %85 to i32
  %87 = icmp ne i32 %86, 84
  br i1 %87, label %88, label %89

88:                                               ; preds = %81
  store i32 1, i32* %7, align 4
  br label %108

89:                                               ; preds = %81, %74, %67, %60
  %90 = load i32, i32* %6, align 4
  %91 = sext i32 %90 to i64
  %92 = getelementptr inbounds [501 x i8], [501 x i8]* %9, i64 0, i64 %91
  %93 = load i8, i8* %92, align 1
  %94 = sext i8 %93 to i32
  %95 = load i32, i32* %6, align 4
  %96 = sext i32 %95 to i64
  %97 = getelementptr inbounds [501 x i8], [501 x i8]* %10, i64 0, i64 %96
  %98 = load i8, i8* %97, align 1
  %99 = sext i8 %98 to i32
  %100 = icmp eq i32 %94, %99
  br i1 %100, label %101, label %104

101:                                              ; preds = %89
  %102 = load i32, i32* %8, align 4
  %103 = add nsw i32 %102, 1
  store i32 %103, i32* %8, align 4
  br label %104

104:                                              ; preds = %101, %89
  br label %105

105:                                              ; preds = %104
  %106 = load i32, i32* %6, align 4
  %107 = add nsw i32 %106, 1
  store i32 %107, i32* %6, align 4
  br label %27

108:                                              ; preds = %88, %59, %27
  %109 = load i32, i32* %7, align 4
  %110 = icmp eq i32 %109, 0
  br i1 %110, label %111, label %125

111:                                              ; preds = %108
  %112 = load i32, i32* %8, align 4
  %113 = sitofp i32 %112 to double
  %114 = load i32, i32* %4, align 4
  %115 = sitofp i32 %114 to double
  %116 = fdiv double %113, %115
  store double %116, double* %3, align 8
  %117 = load double, double* %3, align 8
  %118 = load double, double* %2, align 8
  %119 = fcmp ogt double %117, %118
  br i1 %119, label %120, label %122

120:                                              ; preds = %111
  %121 = call i32 (i8*, ...) @printf(i8* getelementptr inbounds ([4 x i8], [4 x i8]* @.str.3, i64 0, i64 0))
  br label %124

122:                                              ; preds = %111
  %123 = call i32 (i8*, ...) @printf(i8* getelementptr inbounds ([3 x i8], [3 x i8]* @.str.4, i64 0, i64 0))
  br label %124

124:                                              ; preds = %122, %120
  br label %127

125:                                              ; preds = %108
  %126 = call i32 (i8*, ...) @printf(i8* getelementptr inbounds ([6 x i8], [6 x i8]* @.str.2, i64 0, i64 0))
  br label %127

127:                                              ; preds = %125, %124
  br label %128

128:                                              ; preds = %127, %24
  ret i32 0
}

declare dso_local i32 @__isoc99_scanf(i8*, ...) #1

; Function Attrs: nounwind readonly
declare dso_local i64 @strlen(i8*) #2

declare dso_local i32 @printf(i8*, ...) #1


!llvm.module.flags = !{!0}
!llvm.ident = !{!1}

!0 = !{i32 1, !"wchar_size", i32 4}
!1 = !{!"clang version 10.0.0-4ubuntu1 "}
